(lp1
F3.6742424242424243
aF11.157395701643489
aF11.281176072997635
aF11.032474408753972
aF10.872408863473909
aF10.695889414332484
aF10.585029069767442
aF10.038061041292639
aF10.030935251798562
aF9.8044672281215668
aF9.5272058823529413
aF10.102631578947369
aF9.6152133580705001
aF9.253383458646617
aF9.279702048417132
aF9.6017563955708294
aF9.1087613293051355
aF9.4674373795761078
aF9.1953805376751223
aF9.293282149712093
aF9.0962566844919781
aF9.6254403131115467
aF9.4556562869530936
aF9.6574476491505337
aF9.2472638832590199
aF9.0785237534354142
aF8.9782521143777689
aF9.6304784881383192
aF9.0441527446300718
aF9.2002462043496109
aF8.7361736993035635
aF8.7748864105741422
aF9.0288702928870297
aF8.6809917355371908
aF8.8443138900545524
aF8.1155444721529513
aF8.4731457800511514
aF8.4553014553014556
aF8.4615384615384617
aF8.6397941680960546
aF8.6269430051813476
aF8.4664082687338507
aF8.3782135076252722
aF8.0836618484450291
aF8.3979637007525447
aF8.9261565836298935
aF8.914921465968586
aF9.1348364279398755
aF9.2734746862829951
aF9.4150860167622401
aF9.6378021978021984
aF9.0155555555555562
aF9.3497096918267086
aF9.4895789025946407
aF8.8238434163701065
aF8.77622061482821
aF9.0783858998144709
aF9.0046425255338907
aF9.0296749882242118
aF8.7074542897327714
aF8.732193732193732
aF8.9045299561617153
aF8.4257662835249043
aF8.0987246102975909
aF8.6657060518731992
aF8.7289628180039145
aF8.8355424644084444
aF8.3571074789499757
aF8.6202531645569618
aF8.6132123045890072
aF8.8057259713701423
aF8.8742138364779866
aF8.6743697478991599
aF8.834930777422791
aF8.310669456066945
aF8.1685039370078734
aF8.2016216216216211
aF8.9695321001088146
aF9.2508269018743103
aF9.0055096418732781
aF8.9249165739710783
aF9.1493212669683253
aF8.9644641865630206
aF8.442123094297008
aF8.7234525837592276
aF9.2002321532211262
aF9.6296948356807519
aF9.0256260920209677
aF9.3779481132075464
aF9.5419161676646702
aF9.0762862211709052
aF9.2005847953216371
aF9.1060070671378099
aF8.7217647058823538
aF9.0338680926916215
aF9.6785069235400361
aF9.294520547945206
aF9.3542435424354249
aF9.2723270440251575
aF9.2640911969601021
aF9.2101869761444224
aF9.0317357512953365
aF8.8546666666666667
aF9.1760374832663985
aF9.8942181340341655
aF9.815772462831287
aF9.5152116402116409
aF9.5358565737051801
aF9.8560709413369718
aF9.5927475592747555
aF9.7355430183356848
aF10.045911047345768
aF9.9355539464156415
aF10.362490733876946
aF10.070044709388972
aF9.5752808988764038
aF9.293674698795181
aF9.6283320639756287
aF10.470771628994544
aF10.236600306278714
aF9.3858024691358022
aF10.002329192546584
aF10.171114599686028
aF9.8108747044917255
aF9.708498808578236
aF10.119902120717782
aF9.7953216374269001
aF9.8117258464079278
aF9.9812765957446814
aF9.4376590330788801
aF10.351993214588635
aF10.412725709372314
aF10.686411149825783
aF10.260519247985675
aF9.6748188405797109
aF9.897977941176471
aF10.611967361740707
aF10.606511627906977
aF10.607933579335793
aF10.944550669216062
aF10.416587225929456
aF10.896245059288537
aF11.17369970559372
aF10.724242424242425
aF10.628657921291625
aF10.287356321839081
aF10.156418554476806
aF10.416129032258064
aF10.379530916844349
aF10.077177508269019
aF11.341600901916573
aF10.131905298759865
aF10.273878020713465
aF9.8015783540022543
aF10.216725559481743
aF10.068181818181818
aF9.8996415770609314
aF10.409580838323354
aF10.822222222222223
aF10.726027397260275
aF10.235521235521235
aF10.887626262626263
aF10.346911957950066
aF10.474934036939313
aF10.028
aF10.015027322404372
aF9.983240223463687
aF12.48817802503477
aF9.4719424460431654
aF9.7884057971014489
aF9.8070692194403541
aF10.428785607196401
aF11.093846153846155
aF10.947122861586314
aF10.072347266881028
aF10.143556280587276
aF9.8327868852459019
aF9.993150684931507
aF10.197255574614065
aF10.187719298245614
aF11.188405797101449
aF10.048109965635739
aF10.391843971631205
aF10.898113207547169
aF10.55451127819549
aF10.118829981718465
aF9.6081081081081088
aF10.971311475409836
aF10.189898989898991
aF10.85200845665962
aF11.029787234042553
aF10.199596774193548
aF10.307359307359308
aF10.763274336283185
aF9.8966292134831466
aF10.807962529274004
aF11.505747126436782
aF11.333333333333334
aF10.724537037037036
aF11.43778801843318
aF12.165116279069768
aF10.032418952618453
aF10.307106598984772
aF10.83969465648855
aF10.308860759493671
aF11.51413881748072
aF10.554123711340207
aF10.215258855585832
aF11.527472527472527
aF11.941666666666666
aF11.80281690140845
aF11.060606060606061
aF10.495677233429396
aF10.339130434782609
aF10.58433734939759
aF11.884375
aF11.385852090032154
aF11.485342019543975
aF12.239864864864865
aF11.079872204472844
aF11.726666666666667
aF10.204861111111111
aF11.585616438356164
aF11.116788321167883
aF10.824561403508772
aF10.887719298245614
aF10.590579710144928
aF11.405303030303031
aF9.825925925925926
aF10.75
aF10.578125
aF10.688524590163935
aF10.141078838174273
aF10.957983193277311
aF10.497757847533633
aF12.40343347639485
aF10.853982300884956
aF11.076233183856502
aF11.058823529411764
aF11.490654205607477
aF12.086294416243655
aF11.796954314720812
aF10.318407960199005
aF10.015000000000001
aF11.005291005291005
aF9.9591836734693882
aF12.020833333333334
aF14.767567567567568
aF12.935483870967742
aF11.936507936507937
aF12.585106382978724
aF11.668421052631579
aF11.094240837696335
aF9.8235294117647065
aF9.2880434782608692
aF10.335135135135134
aF9.3913043478260878
aF11.216666666666667
aF10.095505617977528
aF11.291428571428572
aF12.304093567251462
aF12.23391812865497
aF10.876470588235295
aF10.63905325443787
aF9.6766467065868262
aF9.1012658227848107
aF9.0434782608695645
aF10.248322147651006
aF11.07741935483871
aF8.0588235294117645
aF9.1999999999999993
aF11.827586206896552
aF9.8333333333333339
aF9.8623188405797109
aF10.080882352941176
aF8.3383458646616546
aF9.6222222222222218
aF9.0592592592592585
aF10.113636363636363
aF10.677165354330709
aF10.837209302325581
aF10.121951219512194
aF11.438461538461539
aF10.269841269841271
aF11.047619047619047
aF10.637931034482758
aF11.495867768595041
aF10.89516129032258
aF10.984615384615385
aF12.586776859504132
aF10.666666666666666
aF10.166666666666666
aF9.9411764705882355
aF11.016260162601625
aF8.7933884297520652
aF10.223140495867769
aF8.6818181818181817
aF8.5172413793103452
aF10.529411764705882
aF10.324074074074074
aF8.4907407407407405
aF8.75
aF9.7982456140350873
aF9.2436974789915958
aF9.8545454545454554
aF8.5803571428571423
aF8.9745762711864412
aF7.8130081300813012
aF8.6756756756756754
aF9.8230088495575227
aF9.2254901960784306
aF8.7522935779816518
aF8.6605504587155959
aF9.053097345132743
aF8.0999999999999996
aF9.3644859813084107
aF9.3673469387755102
aF10.602040816326531
aF10.4
aF12.43298969072165
aF11
aF10.556701030927835
aF10.721153846153847
aF10.153846153846153
aF11.239583333333334
aF10.721153846153847
aF12.078431372549019
aF11.323529411764707
aF12.171717171717171
aF11.922222222222222
aF10.292929292929292
aF12.686274509803921
aF12.053191489361701
aF12.545454545454545
aF8.97752808988764
aF8.7159090909090917
aF10.199999999999999
aF9.595505617977528
aF9.3888888888888893
aF11.266666666666667
aF12.119047619047619
aF12.831325301204819
aF14.010989010989011
aF13.614457831325302
aF9.7564102564102573
aF13.506172839506172
aF13.086419753086419
aF14.168831168831169
aF15.354430379746836
aF11.815789473684211
aF12.262499999999999
aF13.726027397260275
aF17.740259740259742
aF15.302631578947368
aF14.551282051282051
aF13.119999999999999
aF13.736111111111111
aF15.27536231884058
aF15.701492537313433
aF19
aF18.584615384615386
aF16.1875
aF15.966101694915254
aF15.063492063492063
aF14.65
aF13.815384615384616
aF16.049180327868854
aF15.081967213114755
aF12.887096774193548
aF13.111111111111111
aF11.327586206896552
aF12.254237288135593
aF12.161290322580646
aF10.236363636363636
aF11.672727272727272
aF11.199999999999999
aF14.460000000000001
aF15.294117647058824
aF13.58
aF13.204545454545455
aF14.163636363636364
aF12.34
aF17.739130434782609
aF18.048780487804876
aF16.354166666666668
aF11.956521739130435
aF15.326086956521738
aF17.479166666666668
aF10.291666666666666
aF13.574468085106384
aF13.357142857142858
aF16.902439024390244
aF17.236842105263158
aF17.818181818181817
aF19.38095238095238
aF21.30952380952381
aF19.666666666666668
aF18.674418604651162
aF14.135135135135135
aF11.184210526315789
aF13.648648648648649
aF14.441176470588236
aF14.914285714285715
aF13.657142857142857
aF14.176470588235293
aF14.078947368421053
aF13.787878787878787
aF12.75
aF12.75
aF13.525
aF12.974358974358974
aF16.194444444444443
aF20.23076923076923
aF27.567567567567568
aF27.857142857142858
aF26.083333333333332
aF26.94736842105263
aF19.914285714285715
aF25.939393939393938
aF20.026315789473685
aF15.416666666666666
aF15.379310344827585
aF18.1875
aF15.34375
aF14.303030303030303
aF12.25
aF13.607142857142858
aF17.148148148148149
aF14.862068965517242
aF17.166666666666668
aF13.551724137931034
aF14.296296296296296
aF14.111111111111111
aF15.821428571428571
aF14.925925925925926
aF10.392857142857142
aF11.666666666666666
aF27.571428571428573
aF20.636363636363637
aF20.772727272727273
aF17.523809523809526
aF19.199999999999999
aF29.75
aF27.699999999999999
aF25.166666666666668
aF21.368421052631579
aF17.285714285714285
aF23.733333333333334
aF19
aF23.399999999999999
aF16.625
aF23.733333333333334
aF15.692307692307692
aF13.5
aF22.166666666666668
aF44.81818181818182
aF14.272727272727273
aF15.545454545454545
aF10.333333333333334
aF9.8000000000000007
aF11.4
aF13.1
aF15.4
aF13.4
aF13.444444444444445
aF16.25
aF14.625
aF24
aF17
aF29.199999999999999
aF13.142857142857142
aF14.666666666666666
aF30.857142857142858
aF14.285714285714286
aF10.285714285714286
aF15
aF10.833333333333334
aF9.6666666666666661
aF17.199999999999999
aF18.399999999999999
aF15.75
aF19.199999999999999
aF17
aF10.199999999999999
aF14.5
aF10.5
aF9.8000000000000007
aF6
aF2.5
aF5.5
aF8.5
aF21
aF9
aF38
aF13
aF13
aF18.5
aF14.5
aF9.5
aF26
aF12.5
aF46.5
aF123
aF48
aF59
aF81
aF48
aF31
aF70
aF19
aF19
a.