c__builtin__
set
p1
((lp2
Vmildlyinteresting
p3
aVdataisbeautiful
p4
aVvideos
p5
aVtodayilearned
p6
aVMusic
p7
aVDIY
p8
aVEarthPorn
p9
aVInternetIsBeautiful
p10
aVtifu
p11
aVfunny
p12
aVmovies
p13
aVIAmA
p14
aVShowerthoughts
p15
aVblog
p16
aVworldnews
p17
aVgaming
p18
aVaww
p19
aVFuturology
p20
aVJokes
p21
aVLifeProTips
p22
aVnews
p23
aVgifs
p24
aVtelevision
p25
aVscience
p26
aVspace
p27
aVcreepy
p28
aVpics
p29
aVnosleep
p30
aVAskReddit
p31
aVGetMotivated
p32
atRp33
.